; Function Attrs: nofree nounwind uwtable
define void @PQgen(i32 noundef %0) local_unnamed_addr #0 {
  %2 = load ptr, ptr @pq, align 8, !tbaa !3
  %.not = icmp eq ptr %2, null
  br i1 %.not, label %3, label %17

3:                                                ; preds = %1
  %4 = add nsw i32 %0, 1
  %5 = sext i32 %4 to i64
  %mul.ov.i = icmp slt i32 %0, -1
  br i1 %mul.ov.i, label %6, label %9

6:                                                ; preds = %3
  %7 = load ptr, ptr @stderr, align 8, !tbaa !8
  %8 = tail call i32 (ptr, ptr, ...) @fprintf(ptr noundef %7, ptr noundef nonnull @.str.4, i64 noundef range(i64 -2147483647, 2147483648) %5, i64 noundef 8) #15
  tail call fastcc void @graphviz_exit() #16
  unreachable

9:                                                ; preds = %3
  %10 = icmp ne i32 %4, 0
  %11 = tail call noalias ptr @calloc(i64 noundef range(i64 -2147483647, 2147483648) %5, i64 noundef 8) #17
  %12 = icmp eq ptr %11, null
  %or.cond3.i = and i1 %10, %12
  br i1 %or.cond3.i, label %13, label %gv_calloc.exit

13:                                               ; preds = %9
  %14 = load ptr, ptr @stderr, align 8, !tbaa !8
  %15 = shl nuw nsw i64 %5, 3
  %16 = tail call i32 (ptr, ptr, ...) @fprintf(ptr noundef %14, ptr noundef nonnull @.str.5, i64 noundef %15) #15
  tail call fastcc void @graphviz_exit() #16
  unreachable

gv_calloc.exit:                                   ; preds = %9
  store ptr %11, ptr @pq, align 8, !tbaa !3
  store ptr @guard, ptr %11, align 8, !tbaa !10
  store i32 %0, ptr @PQsize, align 4, !tbaa !12
  br label %17

17:                                               ; preds = %gv_calloc.exit, %1
  store i32 0, ptr @PQcnt, align 4, !tbaa !12
  ret void
}